; Function Attrs: nounwind sspstrong uwtable
define internal i64 @random_s_seed(i64 %0) #0 {
  %2 = load ptr, ptr @default_rand_key, align 8, !tbaa !7
  %3 = tail call ptr @rb_ractor_local_storage_ptr(ptr noundef %2) #23
  %4 = icmp eq ptr %3, null
  br i1 %4, label %5, label %default_rand.exit

5:                                                ; preds = %1
  %6 = tail call noalias nonnull dereferenceable(2520) ptr @ruby_xcalloc(i64 noundef 1, i64 noundef 2520) #24
  %7 = load ptr, ptr @default_rand_key, align 8, !tbaa !7
  tail call void @rb_ractor_local_storage_ptr_set(ptr noundef %7, ptr noundef nonnull %6) #23
  br label %default_rand.exit

default_rand.exit:                                ; preds = %1, %5
  %.0.i = phi ptr [ %6, %5 ], [ %3, %1 ]
  %8 = getelementptr inbounds nuw i8, ptr %.0.i, i64 2504
  %9 = load ptr, ptr %8, align 8, !tbaa !12
  %.not.i = icmp eq ptr %9, null
  br i1 %.not.i, label %10, label %default_rand.exit.rand_mt_start.exit_crit_edge

default_rand.exit.rand_mt_start.exit_crit_edge:   ; preds = %default_rand.exit
  %.pre = load i64, ptr %.0.i, align 8, !tbaa !19
  br label %rand_mt_start.exit

10:                                               ; preds = %default_rand.exit
  %11 = tail call i64 @random_seed(i64 poison)
  %12 = tail call fastcc i64 @rand_init(ptr noundef nonnull @random_mt_if, ptr noundef nonnull %.0.i, i64 noundef %11)
  store i64 %11, ptr %.0.i, align 8, !tbaa !19
  br label %rand_mt_start.exit

rand_mt_start.exit:                               ; preds = %default_rand.exit.rand_mt_start.exit_crit_edge, %10
  %13 = phi i64 [ %.pre, %default_rand.exit.rand_mt_start.exit_crit_edge ], [ %11, %10 ]
  ret i64 %13
}